target datalayout = "e-m:e-p270:32:32-p271:32:32-p272:64:64-i64:64-i128:128-f80:128-n8:16:32:64-S128"
target triple = "x86_64-pc-linux-gnu"

%struct.RBasic = type { i64, i64 }
%struct.RRational = type { %struct.RBasic, i64, i64 }

; Function Attrs: nounwind sspstrong uwtable
define internal i64 @nurat_ceil(i64 noundef %0) #0 {
  %2 = alloca i64, align 8
  %3 = alloca ptr, align 8
  store i64 %0, ptr %2, align 8, !tbaa !7
  call void @llvm.lifetime.start.p0(i64 8, ptr %3) #21
  %4 = load i64, ptr %2, align 8, !tbaa !7
  %5 = inttoptr i64 %4 to ptr
  store ptr %5, ptr %3, align 8, !tbaa !16
  %6 = load ptr, ptr %3, align 8, !tbaa !16
  %7 = getelementptr inbounds nuw %struct.RRational, ptr %6, i32 0, i32 1
  %8 = load i64, ptr %7, align 8, !tbaa !19
  %9 = call i64 @rb_int_uminus(i64 noundef %8)
  %10 = load ptr, ptr %3, align 8, !tbaa !16
  %11 = getelementptr inbounds nuw %struct.RRational, ptr %10, i32 0, i32 2
  %12 = load i64, ptr %11, align 8, !tbaa !21
  %13 = call i64 @rb_int_idiv(i64 noundef %9, i64 noundef %12)
  %14 = call i64 @rb_int_uminus(i64 noundef %13)
  call void @llvm.lifetime.end.p0(i64 8, ptr %3) #21
  ret i64 %14
}