; Function Attrs: nounwind sspstrong uwtable
define internal i64 @nurat_ceil(i64 noundef %0) #0 {
  %2 = inttoptr i64 %0 to ptr
  %3 = getelementptr inbounds nuw i8, ptr %2, i64 16
  %4 = load i64, ptr %3, align 8, !tbaa !19
  %5 = tail call i64 @rb_int_uminus(i64 noundef %4) #17
  %6 = getelementptr inbounds nuw i8, ptr %2, i64 24
  %7 = load i64, ptr %6, align 8, !tbaa !21
  %8 = tail call i64 @rb_int_idiv(i64 noundef %5, i64 noundef %7) #17
  %9 = tail call i64 @rb_int_uminus(i64 noundef %8) #17
  ret i64 %9
}